; Function Attrs: mustprogress nounwind uwtable
define void @_ZN5Ipopt15ProbingMuOracleD2Ev(ptr noundef nonnull align 8 captures(none) dereferenceable(72) initializes((0, 8)) %0) unnamed_addr #4 align 2 personality ptr @__gxx_personality_v0 {
  store ptr getelementptr inbounds nuw inrange(-16, 32) (i8, ptr @_ZTVN5Ipopt15ProbingMuOracleE, i64 16), ptr %0, align 8, !tbaa !8
  %2 = getelementptr inbounds nuw i8, ptr %0, i64 56
  %3 = load ptr, ptr %2, align 8, !tbaa !10
  %.not.i.i = icmp eq ptr %3, null
  br i1 %.not.i.i, label %_ZN5Ipopt8SmartPtrINS_14PDSystemSolverEED2Ev.exit, label %4

4:                                                ; preds = %1
  %5 = getelementptr inbounds nuw i8, ptr %3, i64 8
  %6 = load i32, ptr %5, align 8, !tbaa !3
  %7 = add nsw i32 %6, -1
  store i32 %7, ptr %5, align 8, !tbaa !3
  %8 = icmp eq i32 %7, 0
  br i1 %8, label %9, label %_ZN5Ipopt8SmartPtrINS_14PDSystemSolverEED2Ev.exit

9:                                                ; preds = %4
  %10 = load ptr, ptr %3, align 8, !tbaa !8
  %11 = getelementptr inbounds nuw i8, ptr %10, i64 8
  %12 = load ptr, ptr %11, align 8
  tail call void %12(ptr noundef nonnull align 8 dereferenceable(49) %3) #23
  store ptr null, ptr %2, align 8, !tbaa !10
  br label %_ZN5Ipopt8SmartPtrINS_14PDSystemSolverEED2Ev.exit

_ZN5Ipopt8SmartPtrINS_14PDSystemSolverEED2Ev.exit: ; preds = %1, %4, %9
  store ptr getelementptr inbounds nuw inrange(-16, 24) (i8, ptr @_ZTVN5Ipopt23AlgorithmStrategyObjectE, i64 16), ptr %0, align 8, !tbaa !8
  %13 = getelementptr inbounds nuw i8, ptr %0, i64 40
  %14 = load ptr, ptr %13, align 8, !tbaa !14
  %.not.i.i.i = icmp eq ptr %14, null
  br i1 %.not.i.i.i, label %_ZN5Ipopt8SmartPtrINS_25IpoptCalculatedQuantitiesEED2Ev.exit.i, label %15

15:                                               ; preds = %_ZN5Ipopt8SmartPtrINS_14PDSystemSolverEED2Ev.exit
  %16 = getelementptr inbounds nuw i8, ptr %14, i64 8
  %17 = load i32, ptr %16, align 8, !tbaa !3
  %18 = add nsw i32 %17, -1
  store i32 %18, ptr %16, align 8, !tbaa !3
  %19 = icmp eq i32 %18, 0
  br i1 %19, label %20, label %_ZN5Ipopt8SmartPtrINS_25IpoptCalculatedQuantitiesEED2Ev.exit.i

20:                                               ; preds = %15
  %21 = load ptr, ptr %14, align 8, !tbaa !8
  %22 = getelementptr inbounds nuw i8, ptr %21, i64 8
  %23 = load ptr, ptr %22, align 8
  tail call void %23(ptr noundef nonnull align 8 dereferenceable(2185) %14) #23
  store ptr null, ptr %13, align 8, !tbaa !14
  br label %_ZN5Ipopt8SmartPtrINS_25IpoptCalculatedQuantitiesEED2Ev.exit.i

_ZN5Ipopt8SmartPtrINS_25IpoptCalculatedQuantitiesEED2Ev.exit.i: ; preds = %20, %15, %_ZN5Ipopt8SmartPtrINS_14PDSystemSolverEED2Ev.exit
  %24 = getelementptr inbounds nuw i8, ptr %0, i64 32
  %25 = load ptr, ptr %24, align 8, !tbaa !17
  %.not.i.i1.i = icmp eq ptr %25, null
  br i1 %.not.i.i1.i, label %_ZN5Ipopt8SmartPtrINS_9IpoptDataEED2Ev.exit.i, label %26

26:                                               ; preds = %_ZN5Ipopt8SmartPtrINS_25IpoptCalculatedQuantitiesEED2Ev.exit.i
  %27 = getelementptr inbounds nuw i8, ptr %25, i64 8
  %28 = load i32, ptr %27, align 8, !tbaa !3
  %29 = add nsw i32 %28, -1
  store i32 %29, ptr %27, align 8, !tbaa !3
  %30 = icmp eq i32 %29, 0
  br i1 %30, label %31, label %_ZN5Ipopt8SmartPtrINS_9IpoptDataEED2Ev.exit.i

31:                                               ; preds = %26
  %32 = load ptr, ptr %25, align 8, !tbaa !8
  %33 = getelementptr inbounds nuw i8, ptr %32, i64 8
  %34 = load ptr, ptr %33, align 8
  tail call void %34(ptr noundef nonnull align 8 dereferenceable(2232) %25) #23
  store ptr null, ptr %24, align 8, !tbaa !17
  br label %_ZN5Ipopt8SmartPtrINS_9IpoptDataEED2Ev.exit.i

_ZN5Ipopt8SmartPtrINS_9IpoptDataEED2Ev.exit.i:    ; preds = %31, %26, %_ZN5Ipopt8SmartPtrINS_25IpoptCalculatedQuantitiesEED2Ev.exit.i
  %35 = getelementptr inbounds nuw i8, ptr %0, i64 24
  %36 = load ptr, ptr %35, align 8, !tbaa !20
  %.not.i.i2.i = icmp eq ptr %36, null
  br i1 %.not.i.i2.i, label %_ZN5Ipopt8SmartPtrINS_8IpoptNLPEED2Ev.exit.i, label %37

37:                                               ; preds = %_ZN5Ipopt8SmartPtrINS_9IpoptDataEED2Ev.exit.i
  %38 = getelementptr inbounds nuw i8, ptr %36, i64 8
  %39 = load i32, ptr %38, align 8, !tbaa !3
  %40 = add nsw i32 %39, -1
  store i32 %40, ptr %38, align 8, !tbaa !3
  %41 = icmp eq i32 %40, 0
  br i1 %41, label %42, label %_ZN5Ipopt8SmartPtrINS_8IpoptNLPEED2Ev.exit.i

42:                                               ; preds = %37
  %43 = load ptr, ptr %36, align 8, !tbaa !8
  %44 = getelementptr inbounds nuw i8, ptr %43, i64 8
  %45 = load ptr, ptr %44, align 8
  tail call void %45(ptr noundef nonnull align 8 dereferenceable(24) %36) #23
  store ptr null, ptr %35, align 8, !tbaa !20
  br label %_ZN5Ipopt8SmartPtrINS_8IpoptNLPEED2Ev.exit.i

_ZN5Ipopt8SmartPtrINS_8IpoptNLPEED2Ev.exit.i:     ; preds = %42, %37, %_ZN5Ipopt8SmartPtrINS_9IpoptDataEED2Ev.exit.i
  %46 = getelementptr inbounds nuw i8, ptr %0, i64 16
  %47 = load ptr, ptr %46, align 8, !tbaa !23
  %.not.i.i3.i = icmp eq ptr %47, null
  br i1 %.not.i.i3.i, label %_ZN5Ipopt23AlgorithmStrategyObjectD2Ev.exit, label %48

48:                                               ; preds = %_ZN5Ipopt8SmartPtrINS_8IpoptNLPEED2Ev.exit.i
  %49 = getelementptr inbounds nuw i8, ptr %47, i64 8
  %50 = load i32, ptr %49, align 8, !tbaa !3
  %51 = add nsw i32 %50, -1
  store i32 %51, ptr %49, align 8, !tbaa !3
  %52 = icmp eq i32 %51, 0
  br i1 %52, label %53, label %_ZN5Ipopt23AlgorithmStrategyObjectD2Ev.exit

53:                                               ; preds = %48
  %54 = load ptr, ptr %47, align 8, !tbaa !8
  %55 = getelementptr inbounds nuw i8, ptr %54, i64 8
  %56 = load ptr, ptr %55, align 8
  tail call void %56(ptr noundef nonnull align 8 dereferenceable(40) %47) #23
  store ptr null, ptr %46, align 8, !tbaa !23
  br label %_ZN5Ipopt23AlgorithmStrategyObjectD2Ev.exit

_ZN5Ipopt23AlgorithmStrategyObjectD2Ev.exit:      ; preds = %_ZN5Ipopt8SmartPtrINS_8IpoptNLPEED2Ev.exit.i, %48, %53
  store ptr getelementptr inbounds nuw inrange(-16, 16) (i8, ptr @_ZTVN5Ipopt16ReferencedObjectE, i64 16), ptr %0, align 8, !tbaa !8
  ret void
}